target datalayout = "e-m:e-p270:32:32-p271:32:32-p272:64:64-i64:64-i128:128-f80:128-n8:16:32:64-S128"
target triple = "x86_64-pc-linux-gnu"

%class.Metadata = type { ptr }
%class.AccessFlags = type { i32 }
%class.methodHandle = type { ptr, ptr }
%class.Relocator = type { ptr, i32, i32, ptr, i32, %class.methodHandle, [3 x i8], ptr, ptr }
%class.ExceptionTable = type <{ ptr, i16, [6 x i8] }>
%class.ExceptionTableElement = type { i16, i16, i16, i16 }
%class.Method = type { %class.Metadata, ptr, ptr, ptr, ptr, %class.AccessFlags, i32, %class.MethodFlags, i16, %class.JfrTraceFlag, ptr, ptr, ptr, ptr }
%class.MethodFlags = type { i32 }
%class.JfrTraceFlag = type { i16 }
%class.ConstMethod = type <{ i64, ptr, ptr, i32, %class.ConstMethodFlags, i8, i8, i16, i16, i16, i16, i16, i16, i16, i16, i16, [4 x i8] }>
%class.ConstMethodFlags = type { i32 }

; Function Attrs: mustprogress nounwind uwtable
define linkonce_odr hidden noundef zeroext i1 @_ZNK16ConstMethodFlags19has_exception_tableEv(ptr noundef nonnull align 4 dereferenceable(4) %0) #1 comdat align 2 {
  %2 = alloca ptr, align 8
  store ptr %0, ptr %2, align 8
  %3 = load ptr, ptr %2, align 8
  %4 = getelementptr inbounds %class.ConstMethodFlags, ptr %3, i32 0, i32 0
  %5 = load i32, ptr %4, align 4
  %6 = and i32 %5, 8
  %7 = icmp ne i32 %6, 0
  ret i1 %7
}

; Function Attrs: mustprogress nounwind uwtable
define linkonce_odr hidden noundef zeroext i1 @_ZNK11ConstMethod19has_exception_tableEv(ptr noundef nonnull align 8 dereferenceable(52) %0) #1 comdat align 2 {
  %2 = alloca ptr, align 8
  store ptr %0, ptr %2, align 8
  %3 = load ptr, ptr %2, align 8
  %4 = getelementptr inbounds %class.ConstMethod, ptr %3, i32 0, i32 4
  %5 = call noundef zeroext i1 @_ZNK16ConstMethodFlags19has_exception_tableEv(ptr noundef nonnull align 4 dereferenceable(4) %4)
  ret i1 %5
}

; Function Attrs: mustprogress nounwind uwtable
define linkonce_odr hidden noundef ptr @_ZNK6Method11constMethodEv(ptr noundef nonnull align 8 dereferenceable(88) %0) #1 comdat align 2 {
  %2 = alloca ptr, align 8
  store ptr %0, ptr %2, align 8
  %3 = load ptr, ptr %2, align 8
  %4 = getelementptr inbounds %class.Method, ptr %3, i32 0, i32 1
  %5 = load ptr, ptr %4, align 8
  ret ptr %5
}

; Function Attrs: mustprogress nounwind uwtable
define linkonce_odr hidden noundef zeroext i16 @_ZNK6Method22exception_table_lengthEv(ptr noundef nonnull align 8 dereferenceable(88) %0) #1 comdat align 2 {
  %2 = alloca ptr, align 8
  store ptr %0, ptr %2, align 8
  %3 = load ptr, ptr %2, align 8
  %4 = call noundef ptr @_ZNK6Method11constMethodEv(ptr noundef nonnull align 8 dereferenceable(88) %3)
  %5 = call noundef zeroext i16 @_ZNK11ConstMethod22exception_table_lengthEv(ptr noundef nonnull align 8 dereferenceable(52) %4)
  ret i16 %5
}

; Function Attrs: mustprogress nounwind uwtable
define linkonce_odr hidden noundef ptr @_ZNK6Method21exception_table_startEv(ptr noundef nonnull align 8 dereferenceable(88) %0) #1 comdat align 2 {
  %2 = alloca ptr, align 8
  store ptr %0, ptr %2, align 8
  %3 = load ptr, ptr %2, align 8
  %4 = call noundef ptr @_ZNK6Method11constMethodEv(ptr noundef nonnull align 8 dereferenceable(88) %3)
  %5 = call noundef ptr @_ZNK11ConstMethod21exception_table_startEv(ptr noundef nonnull align 8 dereferenceable(52) %4)
  ret ptr %5
}

; Function Attrs: mustprogress nounwind uwtable
define linkonce_odr hidden noundef zeroext i1 @_ZNK6Method21has_exception_handlerEv(ptr noundef nonnull align 8 dereferenceable(88) %0) #1 comdat align 2 {
  %2 = alloca ptr, align 8
  store ptr %0, ptr %2, align 8
  %3 = load ptr, ptr %2, align 8
  %4 = call noundef ptr @_ZNK6Method11constMethodEv(ptr noundef nonnull align 8 dereferenceable(88) %3)
  %5 = call noundef zeroext i1 @_ZNK11ConstMethod19has_exception_tableEv(ptr noundef nonnull align 8 dereferenceable(52) %4)
  ret i1 %5
}

; Function Attrs: mustprogress nounwind uwtable
define linkonce_odr hidden noundef ptr @_ZNK12methodHandle3objEv(ptr noundef nonnull align 8 dereferenceable(16) %0) #1 comdat align 2 {
  %2 = alloca ptr, align 8
  store ptr %0, ptr %2, align 8
  %3 = load ptr, ptr %2, align 8
  %4 = getelementptr inbounds %class.methodHandle, ptr %3, i32 0, i32 0
  %5 = load ptr, ptr %4, align 8
  ret ptr %5
}

; Function Attrs: mustprogress nounwind uwtable
define linkonce_odr hidden void @_ZN14ExceptionTable14set_handler_pcEit(ptr noundef nonnull align 8 dereferenceable(10) %0, i32 noundef %1, i16 noundef zeroext %2) #1 comdat align 2 {
  %4 = alloca ptr, align 8
  %5 = alloca i32, align 4
  %6 = alloca i16, align 2
  store ptr %0, ptr %4, align 8
  store i32 %1, ptr %5, align 4
  store i16 %2, ptr %6, align 2
  %7 = load ptr, ptr %4, align 8
  %8 = load i16, ptr %6, align 2
  %9 = getelementptr inbounds %class.ExceptionTable, ptr %7, i32 0, i32 0
  %10 = load ptr, ptr %9, align 8
  %11 = load i32, ptr %5, align 4
  %12 = sext i32 %11 to i64
  %13 = getelementptr inbounds %class.ExceptionTableElement, ptr %10, i64 %12
  %14 = getelementptr inbounds %class.ExceptionTableElement, ptr %13, i32 0, i32 2
  store i16 %8, ptr %14, align 2
  ret void
}

; Function Attrs: mustprogress nounwind uwtable
define linkonce_odr hidden noundef zeroext i16 @_ZNK14ExceptionTable10handler_pcEi(ptr noundef nonnull align 8 dereferenceable(10) %0, i32 noundef %1) #1 comdat align 2 {
  %3 = alloca ptr, align 8
  %4 = alloca i32, align 4
  store ptr %0, ptr %3, align 8
  store i32 %1, ptr %4, align 4
  %5 = load ptr, ptr %3, align 8
  %6 = getelementptr inbounds %class.ExceptionTable, ptr %5, i32 0, i32 0
  %7 = load ptr, ptr %6, align 8
  %8 = load i32, ptr %4, align 4
  %9 = sext i32 %8 to i64
  %10 = getelementptr inbounds %class.ExceptionTableElement, ptr %7, i64 %9
  %11 = getelementptr inbounds %class.ExceptionTableElement, ptr %10, i32 0, i32 2
  %12 = load i16, ptr %11, align 2
  ret i16 %12
}

; Function Attrs: mustprogress nounwind uwtable
define linkonce_odr hidden void @_ZN14ExceptionTable10set_end_pcEit(ptr noundef nonnull align 8 dereferenceable(10) %0, i32 noundef %1, i16 noundef zeroext %2) #1 comdat align 2 {
  %4 = alloca ptr, align 8
  %5 = alloca i32, align 4
  %6 = alloca i16, align 2
  store ptr %0, ptr %4, align 8
  store i32 %1, ptr %5, align 4
  store i16 %2, ptr %6, align 2
  %7 = load ptr, ptr %4, align 8
  %8 = load i16, ptr %6, align 2
  %9 = getelementptr inbounds %class.ExceptionTable, ptr %7, i32 0, i32 0
  %10 = load ptr, ptr %9, align 8
  %11 = load i32, ptr %5, align 4
  %12 = sext i32 %11 to i64
  %13 = getelementptr inbounds %class.ExceptionTableElement, ptr %10, i64 %12
  %14 = getelementptr inbounds %class.ExceptionTableElement, ptr %13, i32 0, i32 1
  store i16 %8, ptr %14, align 2
  ret void
}

; Function Attrs: mustprogress nounwind uwtable
define linkonce_odr hidden noundef zeroext i16 @_ZNK14ExceptionTable6end_pcEi(ptr noundef nonnull align 8 dereferenceable(10) %0, i32 noundef %1) #1 comdat align 2 {
  %3 = alloca ptr, align 8
  %4 = alloca i32, align 4
  store ptr %0, ptr %3, align 8
  store i32 %1, ptr %4, align 4
  %5 = load ptr, ptr %3, align 8
  %6 = getelementptr inbounds %class.ExceptionTable, ptr %5, i32 0, i32 0
  %7 = load ptr, ptr %6, align 8
  %8 = load i32, ptr %4, align 4
  %9 = sext i32 %8 to i64
  %10 = getelementptr inbounds %class.ExceptionTableElement, ptr %7, i64 %9
  %11 = getelementptr inbounds %class.ExceptionTableElement, ptr %10, i32 0, i32 1
  %12 = load i16, ptr %11, align 2
  ret i16 %12
}

; Function Attrs: mustprogress nounwind uwtable
define linkonce_odr hidden void @_ZN14ExceptionTable12set_start_pcEit(ptr noundef nonnull align 8 dereferenceable(10) %0, i32 noundef %1, i16 noundef zeroext %2) #1 comdat align 2 {
  %4 = alloca ptr, align 8
  %5 = alloca i32, align 4
  %6 = alloca i16, align 2
  store ptr %0, ptr %4, align 8
  store i32 %1, ptr %5, align 4
  store i16 %2, ptr %6, align 2
  %7 = load ptr, ptr %4, align 8
  %8 = load i16, ptr %6, align 2
  %9 = getelementptr inbounds %class.ExceptionTable, ptr %7, i32 0, i32 0
  %10 = load ptr, ptr %9, align 8
  %11 = load i32, ptr %5, align 4
  %12 = sext i32 %11 to i64
  %13 = getelementptr inbounds %class.ExceptionTableElement, ptr %10, i64 %12
  %14 = getelementptr inbounds %class.ExceptionTableElement, ptr %13, i32 0, i32 0
  store i16 %8, ptr %14, align 2
  ret void
}

; Function Attrs: mustprogress nounwind uwtable
define linkonce_odr hidden noundef zeroext i16 @_Z12checked_castItiET_T0_(i32 noundef %0) #1 comdat {
  %2 = alloca i32, align 4
  %3 = alloca i16, align 2
  store i32 %0, ptr %2, align 4
  %4 = load i32, ptr %2, align 4
  %5 = trunc i32 %4 to i16
  store i16 %5, ptr %3, align 2
  %6 = load i16, ptr %3, align 2
  ret i16 %6
}

; Function Attrs: mustprogress nounwind uwtable
define linkonce_odr hidden noundef zeroext i16 @_ZNK14ExceptionTable8start_pcEi(ptr noundef nonnull align 8 dereferenceable(10) %0, i32 noundef %1) #1 comdat align 2 {
  %3 = alloca ptr, align 8
  %4 = alloca i32, align 4
  store ptr %0, ptr %3, align 8
  store i32 %1, ptr %4, align 4
  %5 = load ptr, ptr %3, align 8
  %6 = getelementptr inbounds %class.ExceptionTable, ptr %5, i32 0, i32 0
  %7 = load ptr, ptr %6, align 8
  %8 = load i32, ptr %4, align 4
  %9 = sext i32 %8 to i64
  %10 = getelementptr inbounds %class.ExceptionTableElement, ptr %7, i64 %9
  %11 = getelementptr inbounds %class.ExceptionTableElement, ptr %10, i32 0, i32 0
  %12 = load i16, ptr %11, align 2
  ret i16 %12
}

; Function Attrs: mustprogress nounwind uwtable
define linkonce_odr hidden noundef zeroext i16 @_ZNK14ExceptionTable6lengthEv(ptr noundef nonnull align 8 dereferenceable(10) %0) #1 comdat align 2 {
  %2 = alloca ptr, align 8
  store ptr %0, ptr %2, align 8
  %3 = load ptr, ptr %2, align 8
  %4 = getelementptr inbounds %class.ExceptionTable, ptr %3, i32 0, i32 1
  %5 = load i16, ptr %4, align 8
  ret i16 %5
}

; Function Attrs: mustprogress nounwind uwtable
define linkonce_odr hidden void @_ZN14ExceptionTableC2EPK6Method(ptr noundef nonnull align 8 dereferenceable(10) %0, ptr noundef %1) unnamed_addr #1 comdat align 2 {
  %3 = alloca ptr, align 8
  %4 = alloca ptr, align 8
  store ptr %0, ptr %3, align 8
  store ptr %1, ptr %4, align 8
  %5 = load ptr, ptr %3, align 8
  %6 = load ptr, ptr %4, align 8
  %7 = call noundef zeroext i1 @_ZNK6Method21has_exception_handlerEv(ptr noundef nonnull align 8 dereferenceable(88) %6)
  br i1 %7, label %8, label %15

8:                                                ; preds = %2
  %9 = load ptr, ptr %4, align 8
  %10 = call noundef ptr @_ZNK6Method21exception_table_startEv(ptr noundef nonnull align 8 dereferenceable(88) %9)
  %11 = getelementptr inbounds %class.ExceptionTable, ptr %5, i32 0, i32 0
  store ptr %10, ptr %11, align 8
  %12 = load ptr, ptr %4, align 8
  %13 = call noundef zeroext i16 @_ZNK6Method22exception_table_lengthEv(ptr noundef nonnull align 8 dereferenceable(88) %12)
  %14 = getelementptr inbounds %class.ExceptionTable, ptr %5, i32 0, i32 1
  store i16 %13, ptr %14, align 8
  br label %18

15:                                               ; preds = %2
  %16 = getelementptr inbounds %class.ExceptionTable, ptr %5, i32 0, i32 0
  store ptr null, ptr %16, align 8
  %17 = getelementptr inbounds %class.ExceptionTable, ptr %5, i32 0, i32 1
  store i16 0, ptr %17, align 8
  br label %18

18:                                               ; preds = %15, %8
  ret void
}

; Function Attrs: mustprogress nounwind uwtable
define linkonce_odr hidden noundef ptr @_ZNK12methodHandleclEv(ptr noundef nonnull align 8 dereferenceable(16) %0) #1 comdat align 2 {
  %2 = alloca ptr, align 8
  store ptr %0, ptr %2, align 8
  %3 = load ptr, ptr %2, align 8
  %4 = call noundef ptr @_ZNK12methodHandle3objEv(ptr noundef nonnull align 8 dereferenceable(16) %3)
  ret ptr %4
}

; Function Attrs: mustprogress nounwind uwtable
define hidden void @_ZN9Relocator22adjust_exception_tableEii(ptr noundef nonnull align 8 dereferenceable(72) %0, i32 noundef %1, i32 noundef %2) #1 align 2 {
  %4 = alloca ptr, align 8
  %5 = alloca i32, align 4
  %6 = alloca i32, align 4
  %7 = alloca %class.ExceptionTable, align 8
  %8 = alloca i32, align 4
  store ptr %0, ptr %4, align 8
  store i32 %1, ptr %5, align 4
  store i32 %2, ptr %6, align 4
  %9 = load ptr, ptr %4, align 8
  %10 = getelementptr inbounds %class.Relocator, ptr %9, i32 0, i32 5
  %11 = call noundef ptr @_ZNK12methodHandleclEv(ptr noundef nonnull align 8 dereferenceable(16) %10)
  call void @_ZN14ExceptionTableC2EPK6Method(ptr noundef nonnull align 8 dereferenceable(10) %7, ptr noundef %11)
  store i32 0, ptr %8, align 4
  br label %12

12:                                               ; preds = %68, %3
  %13 = load i32, ptr %8, align 4
  %14 = call noundef zeroext i16 @_ZNK14ExceptionTable6lengthEv(ptr noundef nonnull align 8 dereferenceable(10) %7)
  %15 = zext i16 %14 to i32
  %16 = icmp slt i32 %13, %15
  br i1 %16, label %17, label %71

17:                                               ; preds = %12
  %18 = load i32, ptr %8, align 4
  %19 = call noundef zeroext i16 @_ZNK14ExceptionTable8start_pcEi(ptr noundef nonnull align 8 dereferenceable(10) %7, i32 noundef %18)
  %20 = zext i16 %19 to i32
  %21 = load i32, ptr %5, align 4
  %22 = icmp sgt i32 %20, %21
  br i1 %22, label %23, label %38

23:                                               ; preds = %17
  %24 = load i32, ptr %8, align 4
  %25 = load i32, ptr %8, align 4
  %26 = call noundef zeroext i16 @_ZNK14ExceptionTable8start_pcEi(ptr noundef nonnull align 8 dereferenceable(10) %7, i32 noundef %25)
  %27 = zext i16 %26 to i32
  %28 = load i32, ptr %6, align 4
  %29 = add nsw i32 %27, %28
  %30 = call noundef zeroext i16 @_Z12checked_castItiET_T0_(i32 noundef %29)
  call void @_ZN14ExceptionTable12set_start_pcEit(ptr noundef nonnull align 8 dereferenceable(10) %7, i32 noundef %24, i16 noundef zeroext %30)
  %31 = load i32, ptr %8, align 4
  %32 = load i32, ptr %8, align 4
  %33 = call noundef zeroext i16 @_ZNK14ExceptionTable6end_pcEi(ptr noundef nonnull align 8 dereferenceable(10) %7, i32 noundef %32)
  %34 = zext i16 %33 to i32
  %35 = load i32, ptr %6, align 4
  %36 = add nsw i32 %34, %35
  %37 = call noundef zeroext i16 @_Z12checked_castItiET_T0_(i32 noundef %36)
  call void @_ZN14ExceptionTable10set_end_pcEit(ptr noundef nonnull align 8 dereferenceable(10) %7, i32 noundef %31, i16 noundef zeroext %37)
  br label %53

38:                                               ; preds = %17
  %39 = load i32, ptr %5, align 4
  %40 = load i32, ptr %8, align 4
  %41 = call noundef zeroext i16 @_ZNK14ExceptionTable6end_pcEi(ptr noundef nonnull align 8 dereferenceable(10) %7, i32 noundef %40)
  %42 = zext i16 %41 to i32
  %43 = icmp slt i32 %39, %42
  br i1 %43, label %44, label %52

44:                                               ; preds = %38
  %45 = load i32, ptr %8, align 4
  %46 = load i32, ptr %8, align 4
  %47 = call noundef zeroext i16 @_ZNK14ExceptionTable6end_pcEi(ptr noundef nonnull align 8 dereferenceable(10) %7, i32 noundef %46)
  %48 = zext i16 %47 to i32
  %49 = load i32, ptr %6, align 4
  %50 = add nsw i32 %48, %49
  %51 = call noundef zeroext i16 @_Z12checked_castItiET_T0_(i32 noundef %50)
  call void @_ZN14ExceptionTable10set_end_pcEit(ptr noundef nonnull align 8 dereferenceable(10) %7, i32 noundef %45, i16 noundef zeroext %51)
  br label %52

52:                                               ; preds = %44, %38
  br label %53

53:                                               ; preds = %52, %23
  %54 = load i32, ptr %8, align 4
  %55 = call noundef zeroext i16 @_ZNK14ExceptionTable10handler_pcEi(ptr noundef nonnull align 8 dereferenceable(10) %7, i32 noundef %54)
  %56 = zext i16 %55 to i32
  %57 = load i32, ptr %5, align 4
  %58 = icmp sgt i32 %56, %57
  br i1 %58, label %59, label %67

59:                                               ; preds = %53
  %60 = load i32, ptr %8, align 4
  %61 = load i32, ptr %8, align 4
  %62 = call noundef zeroext i16 @_ZNK14ExceptionTable10handler_pcEi(ptr noundef nonnull align 8 dereferenceable(10) %7, i32 noundef %61)
  %63 = zext i16 %62 to i32
  %64 = load i32, ptr %6, align 4
  %65 = add nsw i32 %63, %64
  %66 = call noundef zeroext i16 @_Z12checked_castItiET_T0_(i32 noundef %65)
  call void @_ZN14ExceptionTable14set_handler_pcEit(ptr noundef nonnull align 8 dereferenceable(10) %7, i32 noundef %60, i16 noundef zeroext %66)
  br label %67

67:                                               ; preds = %59, %53
  br label %68

68:                                               ; preds = %67
  %69 = load i32, ptr %8, align 4
  %70 = add nsw i32 %69, 1
  store i32 %70, ptr %8, align 4
  br label %12, !llvm.loop !14

71:                                               ; preds = %12
  ret void
}