; Function Attrs: mustprogress nounwind uwtable
define hidden void @_ZN9Relocator22adjust_exception_tableEii(ptr nocapture noundef nonnull readonly align 8 dereferenceable(72) %0, i32 noundef %1, i32 noundef %2) local_unnamed_addr #0 align 2 {
  %4 = getelementptr inbounds i8, ptr %0, i64 32
  %5 = load ptr, ptr %4, align 8
  %6 = getelementptr inbounds i8, ptr %5, i64 8
  %7 = load ptr, ptr %6, align 8
  %8 = getelementptr inbounds i8, ptr %7, i64 28
  %9 = load i32, ptr %8, align 4
  %10 = and i32 %9, 8
  %.not.i = icmp eq i32 %10, 0
  br i1 %.not.i, label %._crit_edge, label %_ZN14ExceptionTableC2EPK6Method.exit

_ZN14ExceptionTableC2EPK6Method.exit:             ; preds = %3
  %11 = tail call noundef ptr @_ZNK11ConstMethod21exception_table_startEv(ptr noundef nonnull align 8 dereferenceable(52) %7) #10
  %12 = load ptr, ptr %6, align 8
  %13 = tail call noundef zeroext i16 @_ZNK11ConstMethod22exception_table_lengthEv(ptr noundef nonnull align 8 dereferenceable(52) %12) #10
  %.not = icmp eq i16 %13, 0
  br i1 %.not, label %._crit_edge, label %.lr.ph

.lr.ph:                                           ; preds = %_ZN14ExceptionTableC2EPK6Method.exit
  %14 = trunc i32 %2 to i16
  %wide.trip.count = zext i16 %13 to i64
  br label %15

15:                                               ; preds = %.lr.ph, %37
  %indvars.iv = phi i64 [ 0, %.lr.ph ], [ %indvars.iv.next, %37 ]
  %16 = getelementptr inbounds %class.ExceptionTableElement, ptr %11, i64 %indvars.iv
  %17 = load i16, ptr %16, align 2
  %18 = zext i16 %17 to i32
  %19 = icmp sgt i32 %18, %1
  br i1 %19, label %20, label %24

20:                                               ; preds = %15
  %21 = add i16 %17, %14
  store i16 %21, ptr %16, align 2
  %22 = getelementptr inbounds %class.ExceptionTableElement, ptr %11, i64 %indvars.iv, i32 1
  %23 = load i16, ptr %22, align 2
  br label %.sink.split

24:                                               ; preds = %15
  %25 = getelementptr inbounds %class.ExceptionTableElement, ptr %11, i64 %indvars.iv, i32 1
  %26 = load i16, ptr %25, align 2
  %27 = zext i16 %26 to i32
  %28 = icmp ugt i32 %27, %1
  br i1 %28, label %.sink.split, label %30

.sink.split:                                      ; preds = %24, %20
  %.sink37 = phi i16 [ %23, %20 ], [ %26, %24 ]
  %.sink36 = phi ptr [ %22, %20 ], [ %25, %24 ]
  %29 = add i16 %.sink37, %14
  store i16 %29, ptr %.sink36, align 2
  br label %30

30:                                               ; preds = %.sink.split, %24
  %31 = getelementptr inbounds %class.ExceptionTableElement, ptr %11, i64 %indvars.iv, i32 2
  %32 = load i16, ptr %31, align 2
  %33 = zext i16 %32 to i32
  %34 = icmp sgt i32 %33, %1
  br i1 %34, label %35, label %37

35:                                               ; preds = %30
  %36 = add i16 %32, %14
  store i16 %36, ptr %31, align 2
  br label %37

37:                                               ; preds = %30, %35
  %indvars.iv.next = add nuw nsw i64 %indvars.iv, 1
  %exitcond.not = icmp eq i64 %indvars.iv.next, %wide.trip.count
  br i1 %exitcond.not, label %._crit_edge, label %15, !llvm.loop !14

._crit_edge:                                      ; preds = %37, %3, %_ZN14ExceptionTableC2EPK6Method.exit
  ret void
}